target datalayout = "e-m:e-p270:32:32-p271:32:32-p272:64:64-i64:64-i128:128-f80:128-n8:16:32:64-S128"
target triple = "x86_64-pc-linux-gnu"

@hf_afs_ubik_state = internal global i32 0, align 4
@hf_afs_ubik_votestart = internal global i32 0, align 4
@hf_afs_ubik_file = internal global i32 0, align 4
@hf_afs_ubik_pos = internal global i32 0, align 4
@hf_afs_ubik_length = internal global i32 0, align 4
@hf_afs_ubik_locktype = internal global i32 0, align 4
@hf_afs_ubik_site = internal global i32 0, align 4
@.str.962 = private unnamed_addr constant [11 x i8] c"DB Version\00", align 1
@.str.969 = private unnamed_addr constant [4 x i8] c"TID\00", align 1
@.str.970 = private unnamed_addr constant [15 x i8] c"Old DB Version\00", align 1
@.str.971 = private unnamed_addr constant [15 x i8] c"New DB Version\00", align 1

; Function Attrs: null_pointer_is_valid sspstrong uwtable
define internal void @OUT_TIMESECS(ptr noundef %0, i32 noundef %1) #0 {
  %3 = alloca ptr, align 8
  %4 = alloca i32, align 4
  store ptr %0, ptr %3, align 8
  store i32 %1, ptr %4, align 4
  %5 = load ptr, ptr %3, align 8
  %6 = call ptr @ptvcursor_tree(ptr noundef %5)
  %7 = load i32, ptr %4, align 4
  %8 = load ptr, ptr %3, align 8
  %9 = call ptr @ptvcursor_tvbuff(ptr noundef %8)
  %10 = load ptr, ptr %3, align 8
  %11 = call i32 @ptvcursor_current_offset(ptr noundef %10)
  %12 = call ptr @proto_tree_add_item(ptr noundef %6, i32 noundef %7, ptr noundef %9, i32 noundef %11, i32 noundef 4, i32 noundef 18)
  %13 = load ptr, ptr %3, align 8
  call void @ptvcursor_advance(ptr noundef %13, i32 noundef 4)
  ret void
}

; Function Attrs: null_pointer_is_valid sspstrong uwtable
define internal void @dissect_ubik_request(ptr noundef %0, ptr noundef %1, i32 noundef %2) #0 {
  %4 = alloca ptr, align 8
  %5 = alloca ptr, align 8
  %6 = alloca i32, align 4
  store ptr %0, ptr %4, align 8
  store ptr %1, ptr %5, align 8
  store i32 %2, ptr %6, align 4
  %7 = load ptr, ptr %4, align 8
  call void @ptvcursor_advance(ptr noundef %7, i32 noundef 4)
  %8 = load i32, ptr %6, align 4
  switch i32 %8, label %84 [
    i32 10000, label %9
    i32 10001, label %84
    i32 10002, label %17
    i32 10003, label %21
    i32 10004, label %25
    i32 10005, label %25
    i32 20000, label %29
    i32 20001, label %31
    i32 20002, label %33
    i32 20003, label %47
    i32 20004, label %84
    i32 20005, label %55
    i32 20006, label %59
    i32 20007, label %67
    i32 20008, label %67
    i32 20010, label %67
    i32 20009, label %68
    i32 20011, label %76
    i32 20012, label %78
    i32 20013, label %80
  ]

9:                                                ; preds = %3
  %10 = load ptr, ptr %4, align 8
  %11 = load i32, ptr @hf_afs_ubik_state, align 4
  %12 = call ptr @ptvcursor_add(ptr noundef %10, i32 noundef %11, i32 noundef 4, i32 noundef 0)
  %13 = load ptr, ptr %4, align 8
  %14 = load i32, ptr @hf_afs_ubik_votestart, align 4
  call void @OUT_TIMESECS(ptr noundef %13, i32 noundef %14)
  %15 = load ptr, ptr %4, align 8
  call void @OUT_UBIKVERSION(ptr noundef %15, ptr noundef @.str.962)
  %16 = load ptr, ptr %4, align 8
  call void @OUT_UBIKVERSION(ptr noundef %16, ptr noundef @.str.969)
  br label %84

17:                                               ; preds = %3
  %18 = load ptr, ptr %4, align 8
  %19 = load i32, ptr @hf_afs_ubik_site, align 4
  %20 = call ptr @ptvcursor_add(ptr noundef %18, i32 noundef %19, i32 noundef 4, i32 noundef 0)
  br label %84

21:                                               ; preds = %3
  %22 = load ptr, ptr %4, align 8
  %23 = load i32, ptr @hf_afs_ubik_site, align 4
  %24 = call ptr @ptvcursor_add(ptr noundef %22, i32 noundef %23, i32 noundef 4, i32 noundef 0)
  br label %84

25:                                               ; preds = %3, %3
  %26 = load ptr, ptr %4, align 8
  %27 = load i32, ptr @hf_afs_ubik_site, align 4
  %28 = call ptr @ptvcursor_add(ptr noundef %26, i32 noundef %27, i32 noundef 4, i32 noundef 0)
  br label %84

29:                                               ; preds = %3
  %30 = load ptr, ptr %4, align 8
  call void @OUT_UBIKVERSION(ptr noundef %30, ptr noundef @.str.969)
  br label %84

31:                                               ; preds = %3
  %32 = load ptr, ptr %4, align 8
  call void @OUT_UBIKVERSION(ptr noundef %32, ptr noundef @.str.969)
  br label %84

33:                                               ; preds = %3
  %34 = load ptr, ptr %4, align 8
  call void @OUT_UBIKVERSION(ptr noundef %34, ptr noundef @.str.969)
  %35 = load ptr, ptr %4, align 8
  %36 = load i32, ptr @hf_afs_ubik_file, align 4
  %37 = call ptr @ptvcursor_add(ptr noundef %35, i32 noundef %36, i32 noundef 4, i32 noundef 0)
  %38 = load ptr, ptr %4, align 8
  %39 = load i32, ptr @hf_afs_ubik_pos, align 4
  %40 = call ptr @ptvcursor_add(ptr noundef %38, i32 noundef %39, i32 noundef 4, i32 noundef 0)
  %41 = load ptr, ptr %4, align 8
  %42 = load i32, ptr @hf_afs_ubik_length, align 4
  %43 = call ptr @ptvcursor_add(ptr noundef %41, i32 noundef %42, i32 noundef 4, i32 noundef 0)
  %44 = load ptr, ptr %4, align 8
  %45 = load i32, ptr @hf_afs_ubik_locktype, align 4
  %46 = call ptr @ptvcursor_add(ptr noundef %44, i32 noundef %45, i32 noundef 4, i32 noundef 0)
  br label %84

47:                                               ; preds = %3
  %48 = load ptr, ptr %4, align 8
  call void @OUT_UBIKVERSION(ptr noundef %48, ptr noundef @.str.969)
  %49 = load ptr, ptr %4, align 8
  %50 = load i32, ptr @hf_afs_ubik_file, align 4
  %51 = call ptr @ptvcursor_add(ptr noundef %49, i32 noundef %50, i32 noundef 4, i32 noundef 0)
  %52 = load ptr, ptr %4, align 8
  %53 = load i32, ptr @hf_afs_ubik_pos, align 4
  %54 = call ptr @ptvcursor_add(ptr noundef %52, i32 noundef %53, i32 noundef 4, i32 noundef 0)
  br label %84

55:                                               ; preds = %3
  %56 = load ptr, ptr %4, align 8
  %57 = load i32, ptr @hf_afs_ubik_file, align 4
  %58 = call ptr @ptvcursor_add(ptr noundef %56, i32 noundef %57, i32 noundef 4, i32 noundef 0)
  br label %84

59:                                               ; preds = %3
  %60 = load ptr, ptr %4, align 8
  %61 = load i32, ptr @hf_afs_ubik_file, align 4
  %62 = call ptr @ptvcursor_add(ptr noundef %60, i32 noundef %61, i32 noundef 4, i32 noundef 0)
  %63 = load ptr, ptr %4, align 8
  %64 = load i32, ptr @hf_afs_ubik_length, align 4
  %65 = call ptr @ptvcursor_add(ptr noundef %63, i32 noundef %64, i32 noundef 4, i32 noundef 0)
  %66 = load ptr, ptr %4, align 8
  call void @OUT_UBIKVERSION(ptr noundef %66, ptr noundef @.str.962)
  br label %84

67:                                               ; preds = %3, %3, %3
  br label %84

68:                                               ; preds = %3
  %69 = load ptr, ptr %4, align 8
  call void @OUT_UBIKVERSION(ptr noundef %69, ptr noundef @.str.969)
  %70 = load ptr, ptr %4, align 8
  %71 = load i32, ptr @hf_afs_ubik_file, align 4
  %72 = call ptr @ptvcursor_add(ptr noundef %70, i32 noundef %71, i32 noundef 4, i32 noundef 0)
  %73 = load ptr, ptr %4, align 8
  %74 = load i32, ptr @hf_afs_ubik_length, align 4
  %75 = call ptr @ptvcursor_add(ptr noundef %73, i32 noundef %74, i32 noundef 4, i32 noundef 0)
  br label %84

76:                                               ; preds = %3
  %77 = load ptr, ptr %4, align 8
  call void @OUT_UBIKVERSION(ptr noundef %77, ptr noundef @.str.969)
  br label %84

78:                                               ; preds = %3
  %79 = load ptr, ptr %4, align 8
  call void @OUT_UBIK_InterfaceAddrs(ptr noundef %79)
  br label %84

80:                                               ; preds = %3
  %81 = load ptr, ptr %4, align 8
  call void @OUT_UBIKVERSION(ptr noundef %81, ptr noundef @.str.969)
  %82 = load ptr, ptr %4, align 8
  call void @OUT_UBIKVERSION(ptr noundef %82, ptr noundef @.str.970)
  %83 = load ptr, ptr %4, align 8
  call void @OUT_UBIKVERSION(ptr noundef %83, ptr noundef @.str.971)
  br label %84

84:                                               ; preds = %3, %80, %78, %76, %68, %67, %59, %55, %3, %3, %47, %33, %31, %29, %25, %21, %17, %9
  ret void
}