; Function Attrs: null_pointer_is_valid sspstrong uwtable
define internal void @dissect_ubik_request(ptr noundef %0, ptr readnone captures(none) %1, i32 noundef %2) #0 {
  tail call void @ptvcursor_advance(ptr noundef %0, i32 noundef 4)
  switch i32 %2, label %53 [
    i32 10000, label %4
    i32 20013, label %52
    i32 10002, label %12
    i32 10003, label %15
    i32 10004, label %18
    i32 10005, label %18
    i32 20000, label %21
    i32 20001, label %22
    i32 20002, label %23
    i32 20003, label %32
    i32 20012, label %51
    i32 20005, label %37
    i32 20006, label %40
    i32 20011, label %50
    i32 20009, label %45
  ]

4:                                                ; preds = %3
  %5 = load i32, ptr @hf_afs_ubik_state, align 4
  %6 = tail call ptr @ptvcursor_add(ptr noundef %0, i32 noundef %5, i32 noundef 4, i32 noundef 0)
  %7 = load i32, ptr @hf_afs_ubik_votestart, align 4
  %8 = tail call ptr @ptvcursor_tree(ptr noundef %0)
  %9 = tail call ptr @ptvcursor_tvbuff(ptr noundef %0)
  %10 = tail call i32 @ptvcursor_current_offset(ptr noundef %0)
  %11 = tail call ptr @proto_tree_add_item(ptr noundef %8, i32 noundef %7, ptr noundef %9, i32 noundef %10, i32 noundef 4, i32 noundef 18)
  tail call void @ptvcursor_advance(ptr noundef %0, i32 noundef 4)
  tail call fastcc void @OUT_UBIKVERSION(ptr noundef %0, ptr noundef nonnull @.str.962)
  tail call fastcc void @OUT_UBIKVERSION(ptr noundef %0, ptr noundef nonnull @.str.969)
  br label %53

12:                                               ; preds = %3
  %13 = load i32, ptr @hf_afs_ubik_site, align 4
  %14 = tail call ptr @ptvcursor_add(ptr noundef %0, i32 noundef %13, i32 noundef 4, i32 noundef 0)
  br label %53

15:                                               ; preds = %3
  %16 = load i32, ptr @hf_afs_ubik_site, align 4
  %17 = tail call ptr @ptvcursor_add(ptr noundef %0, i32 noundef %16, i32 noundef 4, i32 noundef 0)
  br label %53

18:                                               ; preds = %3, %3
  %19 = load i32, ptr @hf_afs_ubik_site, align 4
  %20 = tail call ptr @ptvcursor_add(ptr noundef %0, i32 noundef %19, i32 noundef 4, i32 noundef 0)
  br label %53

21:                                               ; preds = %3
  tail call fastcc void @OUT_UBIKVERSION(ptr noundef %0, ptr noundef nonnull @.str.969)
  br label %53

22:                                               ; preds = %3
  tail call fastcc void @OUT_UBIKVERSION(ptr noundef %0, ptr noundef nonnull @.str.969)
  br label %53

23:                                               ; preds = %3
  tail call fastcc void @OUT_UBIKVERSION(ptr noundef %0, ptr noundef nonnull @.str.969)
  %24 = load i32, ptr @hf_afs_ubik_file, align 4
  %25 = tail call ptr @ptvcursor_add(ptr noundef %0, i32 noundef %24, i32 noundef 4, i32 noundef 0)
  %26 = load i32, ptr @hf_afs_ubik_pos, align 4
  %27 = tail call ptr @ptvcursor_add(ptr noundef %0, i32 noundef %26, i32 noundef 4, i32 noundef 0)
  %28 = load i32, ptr @hf_afs_ubik_length, align 4
  %29 = tail call ptr @ptvcursor_add(ptr noundef %0, i32 noundef %28, i32 noundef 4, i32 noundef 0)
  %30 = load i32, ptr @hf_afs_ubik_locktype, align 4
  %31 = tail call ptr @ptvcursor_add(ptr noundef %0, i32 noundef %30, i32 noundef 4, i32 noundef 0)
  br label %53

32:                                               ; preds = %3
  tail call fastcc void @OUT_UBIKVERSION(ptr noundef %0, ptr noundef nonnull @.str.969)
  %33 = load i32, ptr @hf_afs_ubik_file, align 4
  %34 = tail call ptr @ptvcursor_add(ptr noundef %0, i32 noundef %33, i32 noundef 4, i32 noundef 0)
  %35 = load i32, ptr @hf_afs_ubik_pos, align 4
  %36 = tail call ptr @ptvcursor_add(ptr noundef %0, i32 noundef %35, i32 noundef 4, i32 noundef 0)
  br label %53

37:                                               ; preds = %3
  %38 = load i32, ptr @hf_afs_ubik_file, align 4
  %39 = tail call ptr @ptvcursor_add(ptr noundef %0, i32 noundef %38, i32 noundef 4, i32 noundef 0)
  br label %53

40:                                               ; preds = %3
  %41 = load i32, ptr @hf_afs_ubik_file, align 4
  %42 = tail call ptr @ptvcursor_add(ptr noundef %0, i32 noundef %41, i32 noundef 4, i32 noundef 0)
  %43 = load i32, ptr @hf_afs_ubik_length, align 4
  %44 = tail call ptr @ptvcursor_add(ptr noundef %0, i32 noundef %43, i32 noundef 4, i32 noundef 0)
  tail call fastcc void @OUT_UBIKVERSION(ptr noundef %0, ptr noundef nonnull @.str.962)
  br label %53

45:                                               ; preds = %3
  tail call fastcc void @OUT_UBIKVERSION(ptr noundef %0, ptr noundef nonnull @.str.969)
  %46 = load i32, ptr @hf_afs_ubik_file, align 4
  %47 = tail call ptr @ptvcursor_add(ptr noundef %0, i32 noundef %46, i32 noundef 4, i32 noundef 0)
  %48 = load i32, ptr @hf_afs_ubik_length, align 4
  %49 = tail call ptr @ptvcursor_add(ptr noundef %0, i32 noundef %48, i32 noundef 4, i32 noundef 0)
  br label %53

50:                                               ; preds = %3
  tail call fastcc void @OUT_UBIKVERSION(ptr noundef %0, ptr noundef nonnull @.str.969)
  br label %53

51:                                               ; preds = %3
  tail call fastcc void @OUT_UBIK_InterfaceAddrs(ptr noundef %0)
  br label %53

52:                                               ; preds = %3
  tail call fastcc void @OUT_UBIKVERSION(ptr noundef %0, ptr noundef nonnull @.str.969)
  tail call fastcc void @OUT_UBIKVERSION(ptr noundef %0, ptr noundef nonnull @.str.970)
  tail call fastcc void @OUT_UBIKVERSION(ptr noundef %0, ptr noundef nonnull @.str.971)
  br label %53

53:                                               ; preds = %52, %51, %50, %45, %40, %37, %32, %23, %22, %21, %18, %15, %12, %4, %3
  ret void
}